; Function Attrs: mustprogress nofree norecurse nosync nounwind willreturn memory(argmem: write) uwtable
define void @_ZN11KnownIssuesC2Ev(ptr noundef nonnull align 8 dereferenceable(48) initializes((0, 24)) %0) unnamed_addr #18 align 2 personality ptr @__gxx_personality_v0 {
  %2 = getelementptr inbounds nuw i8, ptr %0, i64 8
  %3 = getelementptr inbounds nuw i8, ptr %0, i64 24
  tail call void @llvm.memset.p0.i64(ptr noundef nonnull align 8 dereferenceable(24) %0, i8 0, i64 24, i1 false)
  store ptr %2, ptr %3, align 8, !tbaa !29
  %4 = getelementptr inbounds nuw i8, ptr %0, i64 32
  store ptr %2, ptr %4, align 8, !tbaa !35
  %5 = getelementptr inbounds nuw i8, ptr %0, i64 40
  store i64 0, ptr %5, align 8, !tbaa !36
  ret void
}